target datalayout = "e-m:e-p270:32:32-p271:32:32-p272:64:64-i64:64-i128:128-f80:128-n8:16:32:64-S128"
target triple = "x86_64-pc-linux-gnu"

%"class.Json::Value" = type { %"union.Json::Value::ValueHolder", i16, ptr, i64 }
%"union.Json::Value::ValueHolder" = type { i64 }
%"class.std::__cxx11::basic_string" = type { %"struct.std::__cxx11::basic_string<char>::_Alloc_hider", i64, %union.anon }
%"struct.std::__cxx11::basic_string<char>::_Alloc_hider" = type { ptr }
%union.anon = type { i64, [8 x i8] }
%"class.std::__cxx11::basic_ostringstream" = type { %"class.std::basic_ostream.base", %"class.std::__cxx11::basic_stringbuf", %"class.std::basic_ios" }
%"class.std::basic_ostream.base" = type { ptr }
%"class.std::__cxx11::basic_stringbuf" = type { %"class.std::basic_streambuf", i32, %"class.std::__cxx11::basic_string" }
%"class.std::basic_streambuf" = type { ptr, ptr, ptr, ptr, ptr, ptr, ptr, %"class.std::locale" }
%"class.std::locale" = type { ptr }
%"class.std::basic_ios" = type { %"class.std::ios_base", ptr, i8, i8, ptr, ptr, ptr, ptr }
%"class.std::ios_base" = type { ptr, i64, i64, i32, i32, i32, ptr, %"struct.std::ios_base::_Words", [8 x %"struct.std::ios_base::_Words"], i32, ptr, %"class.std::locale" }
%"struct.std::ios_base::_Words" = type { ptr, i64 }

@.str.52 = private unnamed_addr constant [29 x i8] c"LargestInt out of UInt range\00", align 1
@.str.53 = private unnamed_addr constant [30 x i8] c"LargestUInt out of UInt range\00", align 1
@.str.54 = private unnamed_addr constant [25 x i8] c"double out of UInt range\00", align 1
@.str.55 = private unnamed_addr constant [34 x i8] c"Value is not convertible to UInt.\00", align 1

; Function Attrs: mustprogress nounwind uwtable
define internal noundef zeroext i1 @_ZN4JsonL10IsIntegralEd(double noundef %0) #0 {
  %2 = alloca double, align 8
  %3 = alloca double, align 8
  store double %0, ptr %2, align 8
  %4 = load double, ptr %2, align 8
  %5 = call double @modf(double noundef %4, ptr noundef %3) #10
  %6 = fcmp oeq double %5, 0.000000e+00
  ret i1 %6
}

; Function Attrs: mustprogress nounwind uwtable
define internal noundef zeroext i1 @_ZN4JsonL7InRangeIijEEbdT_T0_(double noundef %0, i32 noundef %1, i32 noundef %2) #0 {
  %4 = alloca double, align 8
  %5 = alloca i32, align 4
  %6 = alloca i32, align 4
  store double %0, ptr %4, align 8
  store i32 %1, ptr %5, align 4
  store i32 %2, ptr %6, align 4
  %7 = load double, ptr %4, align 8
  %8 = load i32, ptr %5, align 4
  %9 = sitofp i32 %8 to double
  %10 = fcmp oge double %7, %9
  br i1 %10, label %11, label %16

11:                                               ; preds = %3
  %12 = load double, ptr %4, align 8
  %13 = load i32, ptr %6, align 4
  %14 = uitofp i32 %13 to double
  %15 = fcmp ole double %12, %14
  br label %16

16:                                               ; preds = %11, %3
  %17 = phi i1 [ false, %3 ], [ %15, %11 ]
  ret i1 %17
}

; Function Attrs: mustprogress uwtable
define dso_local noundef zeroext i1 @_ZNK4Json5Value6isUIntEv(ptr noundef nonnull align 8 dereferenceable(32) %0) #1 align 2 {
  %2 = alloca i1, align 1
  %3 = alloca ptr, align 8
  store ptr %0, ptr %3, align 8
  %4 = load ptr, ptr %3, align 8
  %5 = getelementptr inbounds %"class.Json::Value", ptr %4, i32 0, i32 1
  %6 = load i16, ptr %5, align 8
  %7 = and i16 %6, 255
  %8 = zext i16 %7 to i32
  switch i32 %8, label %37 [
    i32 1, label %9
    i32 2, label %19
    i32 3, label %23
  ]

9:                                                ; preds = %1
  %10 = getelementptr inbounds %"class.Json::Value", ptr %4, i32 0, i32 0
  %11 = load i64, ptr %10, align 8
  %12 = icmp sge i64 %11, 0
  br i1 %12, label %13, label %17

13:                                               ; preds = %9
  %14 = getelementptr inbounds %"class.Json::Value", ptr %4, i32 0, i32 0
  %15 = load i64, ptr %14, align 8
  %16 = icmp ule i64 %15, 4294967295
  br label %17

17:                                               ; preds = %13, %9
  %18 = phi i1 [ false, %9 ], [ %16, %13 ]
  store i1 %18, ptr %2, align 1
  br label %39

19:                                               ; preds = %1
  %20 = getelementptr inbounds %"class.Json::Value", ptr %4, i32 0, i32 0
  %21 = load i64, ptr %20, align 8
  %22 = icmp ule i64 %21, 4294967295
  store i1 %22, ptr %2, align 1
  br label %39

23:                                               ; preds = %1
  %24 = getelementptr inbounds %"class.Json::Value", ptr %4, i32 0, i32 0
  %25 = load double, ptr %24, align 8
  %26 = fcmp oge double %25, 0.000000e+00
  br i1 %26, label %27, label %35

27:                                               ; preds = %23
  %28 = getelementptr inbounds %"class.Json::Value", ptr %4, i32 0, i32 0
  %29 = load double, ptr %28, align 8
  %30 = fcmp ole double %29, 0x41EFFFFFFFE00000
  br i1 %30, label %31, label %35

31:                                               ; preds = %27
  %32 = getelementptr inbounds %"class.Json::Value", ptr %4, i32 0, i32 0
  %33 = load double, ptr %32, align 8
  %34 = call noundef zeroext i1 @_ZN4JsonL10IsIntegralEd(double noundef %33)
  br label %35

35:                                               ; preds = %31, %27, %23
  %36 = phi i1 [ false, %27 ], [ false, %23 ], [ %34, %31 ]
  store i1 %36, ptr %2, align 1
  br label %39

37:                                               ; preds = %1
  br label %38

38:                                               ; preds = %37
  store i1 false, ptr %2, align 1
  br label %39

39:                                               ; preds = %38, %35, %19, %17
  %40 = load i1, ptr %2, align 1
  ret i1 %40
}

; Function Attrs: mustprogress uwtable
define dso_local noundef i32 @_ZNK4Json5Value6asUIntEv(ptr noundef nonnull align 8 dereferenceable(32) %0) #1 align 2 personality ptr @__gxx_personality_v0 {
  %2 = alloca i32, align 4
  %3 = alloca ptr, align 8
  %4 = alloca %"class.std::__cxx11::basic_ostringstream", align 8
  %5 = alloca ptr, align 8
  %6 = alloca i32, align 4
  %7 = alloca %"class.std::__cxx11::basic_string", align 8
  %8 = alloca %"class.std::__cxx11::basic_ostringstream", align 8
  %9 = alloca %"class.std::__cxx11::basic_string", align 8
  %10 = alloca %"class.std::__cxx11::basic_ostringstream", align 8
  %11 = alloca %"class.std::__cxx11::basic_string", align 8
  %12 = alloca %"class.std::__cxx11::basic_ostringstream", align 8
  %13 = alloca %"class.std::__cxx11::basic_string", align 8
  store ptr %0, ptr %3, align 8
  %14 = load ptr, ptr %3, align 8
  %15 = getelementptr inbounds %"class.Json::Value", ptr %14, i32 0, i32 1
  %16 = load i16, ptr %15, align 8
  %17 = and i16 %16, 255
  %18 = zext i16 %17 to i32
  switch i32 %18, label %87 [
    i32 1, label %19
    i32 2, label %39
    i32 3, label %59
    i32 0, label %81
    i32 5, label %82
  ]

19:                                               ; preds = %1
  %20 = call noundef zeroext i1 @_ZNK4Json5Value6isUIntEv(ptr noundef nonnull align 8 dereferenceable(32) %14)
  br i1 %20, label %35, label %21

21:                                               ; preds = %19
  call void @_ZNSt7__cxx1119basic_ostringstreamIcSt11char_traitsIcESaIcEEC1Ev(ptr noundef nonnull align 8 dereferenceable(112) %4)
  %22 = invoke noundef nonnull align 8 dereferenceable(8) ptr @_ZStlsISt11char_traitsIcEERSt13basic_ostreamIcT_ES5_PKc(ptr noundef nonnull align 8 dereferenceable(8) %4, ptr noundef @.str.52)
          to label %23 unwind label %26

23:                                               ; preds = %21
  invoke void @_ZNKSt7__cxx1119basic_ostringstreamIcSt11char_traitsIcESaIcEE3strEv(ptr dead_on_unwind writable sret(%"class.std::__cxx11::basic_string") align 8 %7, ptr noundef nonnull align 8 dereferenceable(112) %4)
          to label %24 unwind label %26

24:                                               ; preds = %23
  invoke void @_ZN4Json15throwLogicErrorERKNSt7__cxx1112basic_stringIcSt11char_traitsIcESaIcEEE(ptr noundef nonnull align 8 dereferenceable(32) %7) #18
          to label %25 unwind label %30

25:                                               ; preds = %24
  unreachable

26:                                               ; preds = %23, %21
  %27 = landingpad { ptr, i32 }
          cleanup
  %28 = extractvalue { ptr, i32 } %27, 0
  store ptr %28, ptr %5, align 8
  %29 = extractvalue { ptr, i32 } %27, 1
  store i32 %29, ptr %6, align 4
  br label %34

30:                                               ; preds = %24
  %31 = landingpad { ptr, i32 }
          cleanup
  %32 = extractvalue { ptr, i32 } %31, 0
  store ptr %32, ptr %5, align 8
  %33 = extractvalue { ptr, i32 } %31, 1
  store i32 %33, ptr %6, align 4
  call void @_ZNSt7__cxx1112basic_stringIcSt11char_traitsIcESaIcEED1Ev(ptr noundef nonnull align 8 dereferenceable(32) %7) #10
  br label %34

34:                                               ; preds = %30, %26
  call void @_ZNSt7__cxx1119basic_ostringstreamIcSt11char_traitsIcESaIcEED1Ev(ptr noundef nonnull align 8 dereferenceable(112) %4) #10
  br label %104

35:                                               ; preds = %19
  %36 = getelementptr inbounds %"class.Json::Value", ptr %14, i32 0, i32 0
  %37 = load i64, ptr %36, align 8
  %38 = trunc i64 %37 to i32
  store i32 %38, ptr %2, align 4
  br label %102

39:                                               ; preds = %1
  %40 = call noundef zeroext i1 @_ZNK4Json5Value6isUIntEv(ptr noundef nonnull align 8 dereferenceable(32) %14)
  br i1 %40, label %55, label %41

41:                                               ; preds = %39
  call void @_ZNSt7__cxx1119basic_ostringstreamIcSt11char_traitsIcESaIcEEC1Ev(ptr noundef nonnull align 8 dereferenceable(112) %8)
  %42 = invoke noundef nonnull align 8 dereferenceable(8) ptr @_ZStlsISt11char_traitsIcEERSt13basic_ostreamIcT_ES5_PKc(ptr noundef nonnull align 8 dereferenceable(8) %8, ptr noundef @.str.53)
          to label %43 unwind label %46

43:                                               ; preds = %41
  invoke void @_ZNKSt7__cxx1119basic_ostringstreamIcSt11char_traitsIcESaIcEE3strEv(ptr dead_on_unwind writable sret(%"class.std::__cxx11::basic_string") align 8 %9, ptr noundef nonnull align 8 dereferenceable(112) %8)
          to label %44 unwind label %46

44:                                               ; preds = %43
  invoke void @_ZN4Json15throwLogicErrorERKNSt7__cxx1112basic_stringIcSt11char_traitsIcESaIcEEE(ptr noundef nonnull align 8 dereferenceable(32) %9) #18
          to label %45 unwind label %50

45:                                               ; preds = %44
  unreachable

46:                                               ; preds = %43, %41
  %47 = landingpad { ptr, i32 }
          cleanup
  %48 = extractvalue { ptr, i32 } %47, 0
  store ptr %48, ptr %5, align 8
  %49 = extractvalue { ptr, i32 } %47, 1
  store i32 %49, ptr %6, align 4
  br label %54

50:                                               ; preds = %44
  %51 = landingpad { ptr, i32 }
          cleanup
  %52 = extractvalue { ptr, i32 } %51, 0
  store ptr %52, ptr %5, align 8
  %53 = extractvalue { ptr, i32 } %51, 1
  store i32 %53, ptr %6, align 4
  call void @_ZNSt7__cxx1112basic_stringIcSt11char_traitsIcESaIcEED1Ev(ptr noundef nonnull align 8 dereferenceable(32) %9) #10
  br label %54

54:                                               ; preds = %50, %46
  call void @_ZNSt7__cxx1119basic_ostringstreamIcSt11char_traitsIcESaIcEED1Ev(ptr noundef nonnull align 8 dereferenceable(112) %8) #10
  br label %104

55:                                               ; preds = %39
  %56 = getelementptr inbounds %"class.Json::Value", ptr %14, i32 0, i32 0
  %57 = load i64, ptr %56, align 8
  %58 = trunc i64 %57 to i32
  store i32 %58, ptr %2, align 4
  br label %102

59:                                               ; preds = %1
  %60 = getelementptr inbounds %"class.Json::Value", ptr %14, i32 0, i32 0
  %61 = load double, ptr %60, align 8
  %62 = call noundef zeroext i1 @_ZN4JsonL7InRangeIijEEbdT_T0_(double noundef %61, i32 noundef 0, i32 noundef -1)
  br i1 %62, label %77, label %63

63:                                               ; preds = %59
  call void @_ZNSt7__cxx1119basic_ostringstreamIcSt11char_traitsIcESaIcEEC1Ev(ptr noundef nonnull align 8 dereferenceable(112) %10)
  %64 = invoke noundef nonnull align 8 dereferenceable(8) ptr @_ZStlsISt11char_traitsIcEERSt13basic_ostreamIcT_ES5_PKc(ptr noundef nonnull align 8 dereferenceable(8) %10, ptr noundef @.str.54)
          to label %65 unwind label %68

65:                                               ; preds = %63
  invoke void @_ZNKSt7__cxx1119basic_ostringstreamIcSt11char_traitsIcESaIcEE3strEv(ptr dead_on_unwind writable sret(%"class.std::__cxx11::basic_string") align 8 %11, ptr noundef nonnull align 8 dereferenceable(112) %10)
          to label %66 unwind label %68

66:                                               ; preds = %65
  invoke void @_ZN4Json15throwLogicErrorERKNSt7__cxx1112basic_stringIcSt11char_traitsIcESaIcEEE(ptr noundef nonnull align 8 dereferenceable(32) %11) #18
          to label %67 unwind label %72

67:                                               ; preds = %66
  unreachable

68:                                               ; preds = %65, %63
  %69 = landingpad { ptr, i32 }
          cleanup
  %70 = extractvalue { ptr, i32 } %69, 0
  store ptr %70, ptr %5, align 8
  %71 = extractvalue { ptr, i32 } %69, 1
  store i32 %71, ptr %6, align 4
  br label %76

72:                                               ; preds = %66
  %73 = landingpad { ptr, i32 }
          cleanup
  %74 = extractvalue { ptr, i32 } %73, 0
  store ptr %74, ptr %5, align 8
  %75 = extractvalue { ptr, i32 } %73, 1
  store i32 %75, ptr %6, align 4
  call void @_ZNSt7__cxx1112basic_stringIcSt11char_traitsIcESaIcEED1Ev(ptr noundef nonnull align 8 dereferenceable(32) %11) #10
  br label %76

76:                                               ; preds = %72, %68
  call void @_ZNSt7__cxx1119basic_ostringstreamIcSt11char_traitsIcESaIcEED1Ev(ptr noundef nonnull align 8 dereferenceable(112) %10) #10
  br label %104

77:                                               ; preds = %59
  %78 = getelementptr inbounds %"class.Json::Value", ptr %14, i32 0, i32 0
  %79 = load double, ptr %78, align 8
  %80 = fptoui double %79 to i32
  store i32 %80, ptr %2, align 4
  br label %102

81:                                               ; preds = %1
  store i32 0, ptr %2, align 4
  br label %102

82:                                               ; preds = %1
  %83 = getelementptr inbounds %"class.Json::Value", ptr %14, i32 0, i32 0
  %84 = load i8, ptr %83, align 8
  %85 = trunc i8 %84 to i1
  %86 = select i1 %85, i32 1, i32 0
  store i32 %86, ptr %2, align 4
  br label %102

87:                                               ; preds = %1
  br label %88

88:                                               ; preds = %87
  call void @_ZNSt7__cxx1119basic_ostringstreamIcSt11char_traitsIcESaIcEEC1Ev(ptr noundef nonnull align 8 dereferenceable(112) %12)
  %89 = invoke noundef nonnull align 8 dereferenceable(8) ptr @_ZStlsISt11char_traitsIcEERSt13basic_ostreamIcT_ES5_PKc(ptr noundef nonnull align 8 dereferenceable(8) %12, ptr noundef @.str.55)
          to label %90 unwind label %93

90:                                               ; preds = %88
  invoke void @_ZNKSt7__cxx1119basic_ostringstreamIcSt11char_traitsIcESaIcEE3strEv(ptr dead_on_unwind writable sret(%"class.std::__cxx11::basic_string") align 8 %13, ptr noundef nonnull align 8 dereferenceable(112) %12)
          to label %91 unwind label %93

91:                                               ; preds = %90
  invoke void @_ZN4Json15throwLogicErrorERKNSt7__cxx1112basic_stringIcSt11char_traitsIcESaIcEEE(ptr noundef nonnull align 8 dereferenceable(32) %13) #18
          to label %92 unwind label %97

92:                                               ; preds = %91
  unreachable

93:                                               ; preds = %90, %88
  %94 = landingpad { ptr, i32 }
          cleanup
  %95 = extractvalue { ptr, i32 } %94, 0
  store ptr %95, ptr %5, align 8
  %96 = extractvalue { ptr, i32 } %94, 1
  store i32 %96, ptr %6, align 4
  br label %101

97:                                               ; preds = %91
  %98 = landingpad { ptr, i32 }
          cleanup
  %99 = extractvalue { ptr, i32 } %98, 0
  store ptr %99, ptr %5, align 8
  %100 = extractvalue { ptr, i32 } %98, 1
  store i32 %100, ptr %6, align 4
  call void @_ZNSt7__cxx1112basic_stringIcSt11char_traitsIcESaIcEED1Ev(ptr noundef nonnull align 8 dereferenceable(32) %13) #10
  br label %101

101:                                              ; preds = %97, %93
  call void @_ZNSt7__cxx1119basic_ostringstreamIcSt11char_traitsIcESaIcEED1Ev(ptr noundef nonnull align 8 dereferenceable(112) %12) #10
  br label %104

102:                                              ; preds = %82, %81, %77, %55, %35
  %103 = load i32, ptr %2, align 4
  ret i32 %103

104:                                              ; preds = %101, %76, %54, %34
  %105 = load ptr, ptr %5, align 8
  %106 = load i32, ptr %6, align 4
  %107 = insertvalue { ptr, i32 } poison, ptr %105, 0
  %108 = insertvalue { ptr, i32 } %107, i32 %106, 1
  resume { ptr, i32 } %108
}