; Function Attrs: mustprogress uwtable
define dso_local noundef i32 @_ZNK4Json5Value6asUIntEv(ptr nocapture noundef nonnull readonly align 8 dereferenceable(32) %0) local_unnamed_addr #2 align 2 personality ptr @__gxx_personality_v0 {
  %2 = alloca %"class.std::__cxx11::basic_ostringstream", align 8
  %3 = alloca %"class.std::__cxx11::basic_string", align 8
  %4 = alloca %"class.std::__cxx11::basic_ostringstream", align 8
  %5 = alloca %"class.std::__cxx11::basic_string", align 8
  %6 = alloca %"class.std::__cxx11::basic_ostringstream", align 8
  %7 = alloca %"class.std::__cxx11::basic_string", align 8
  %8 = alloca %"class.std::__cxx11::basic_ostringstream", align 8
  %9 = alloca %"class.std::__cxx11::basic_string", align 8
  %10 = getelementptr inbounds i8, ptr %0, i64 8
  %11 = load i16, ptr %10, align 8
  %trunc = trunc i16 %11 to i8
  switch i8 %trunc, label %58 [
    i8 1, label %_ZNK4Json5Value6isUIntEv.exit
    i8 2, label %_ZNK4Json5Value6isUIntEv.exit20
    i8 3, label %38
    i8 0, label %67
    i8 5, label %54
  ]

_ZNK4Json5Value6isUIntEv.exit:                    ; preds = %1
  %12 = load i64, ptr %0, align 8
  %13 = icmp ult i64 %12, 4294967296
  br i1 %13, label %23, label %14

14:                                               ; preds = %_ZNK4Json5Value6isUIntEv.exit
  call void @_ZNSt7__cxx1119basic_ostringstreamIcSt11char_traitsIcESaIcEEC1Ev(ptr noundef nonnull align 8 dereferenceable(112) %2)
  %15 = invoke noundef nonnull align 8 dereferenceable(8) ptr @_ZStlsISt11char_traitsIcEERSt13basic_ostreamIcT_ES5_PKc(ptr noundef nonnull align 8 dereferenceable(8) %2, ptr noundef nonnull @.str.52)
          to label %16 unwind label %19

16:                                               ; preds = %14
  invoke void @_ZNKSt7__cxx1119basic_ostringstreamIcSt11char_traitsIcESaIcEE3strEv(ptr dead_on_unwind nonnull writable sret(%"class.std::__cxx11::basic_string") align 8 %3, ptr noundef nonnull align 8 dereferenceable(112) %2)
          to label %17 unwind label %19

17:                                               ; preds = %16
  invoke void @_ZN4Json15throwLogicErrorERKNSt7__cxx1112basic_stringIcSt11char_traitsIcESaIcEEE(ptr noundef nonnull align 8 dereferenceable(32) %3) #43
          to label %18 unwind label %21

18:                                               ; preds = %17
  unreachable

19:                                               ; preds = %16, %14
  %20 = landingpad { ptr, i32 }
          cleanup
  br label %68

21:                                               ; preds = %17
  %22 = landingpad { ptr, i32 }
          cleanup
  call void @_ZNSt7__cxx1112basic_stringIcSt11char_traitsIcESaIcEED1Ev(ptr noundef nonnull align 8 dereferenceable(32) %3) #39
  br label %68

23:                                               ; preds = %_ZNK4Json5Value6isUIntEv.exit
  %24 = trunc nuw i64 %12 to i32
  br label %67

_ZNK4Json5Value6isUIntEv.exit20:                  ; preds = %1
  %25 = load i64, ptr %0, align 8
  %26 = icmp ult i64 %25, 4294967296
  br i1 %26, label %36, label %27

27:                                               ; preds = %_ZNK4Json5Value6isUIntEv.exit20
  call void @_ZNSt7__cxx1119basic_ostringstreamIcSt11char_traitsIcESaIcEEC1Ev(ptr noundef nonnull align 8 dereferenceable(112) %4)
  %28 = invoke noundef nonnull align 8 dereferenceable(8) ptr @_ZStlsISt11char_traitsIcEERSt13basic_ostreamIcT_ES5_PKc(ptr noundef nonnull align 8 dereferenceable(8) %4, ptr noundef nonnull @.str.53)
          to label %29 unwind label %32

29:                                               ; preds = %27
  invoke void @_ZNKSt7__cxx1119basic_ostringstreamIcSt11char_traitsIcESaIcEE3strEv(ptr dead_on_unwind nonnull writable sret(%"class.std::__cxx11::basic_string") align 8 %5, ptr noundef nonnull align 8 dereferenceable(112) %4)
          to label %30 unwind label %32

30:                                               ; preds = %29
  invoke void @_ZN4Json15throwLogicErrorERKNSt7__cxx1112basic_stringIcSt11char_traitsIcESaIcEEE(ptr noundef nonnull align 8 dereferenceable(32) %5) #43
          to label %31 unwind label %34

31:                                               ; preds = %30
  unreachable

32:                                               ; preds = %29, %27
  %33 = landingpad { ptr, i32 }
          cleanup
  br label %68

34:                                               ; preds = %30
  %35 = landingpad { ptr, i32 }
          cleanup
  call void @_ZNSt7__cxx1112basic_stringIcSt11char_traitsIcESaIcEED1Ev(ptr noundef nonnull align 8 dereferenceable(32) %5) #39
  br label %68

36:                                               ; preds = %_ZNK4Json5Value6isUIntEv.exit20
  %37 = trunc nuw i64 %25 to i32
  br label %67

38:                                               ; preds = %1
  %39 = load double, ptr %0, align 8
  %40 = fcmp oge double %39, 0.000000e+00
  %41 = fcmp ole double %39, 0x41EFFFFFFFE00000
  %42 = and i1 %40, %41
  br i1 %42, label %52, label %43

43:                                               ; preds = %38
  call void @_ZNSt7__cxx1119basic_ostringstreamIcSt11char_traitsIcESaIcEEC1Ev(ptr noundef nonnull align 8 dereferenceable(112) %6)
  %44 = invoke noundef nonnull align 8 dereferenceable(8) ptr @_ZStlsISt11char_traitsIcEERSt13basic_ostreamIcT_ES5_PKc(ptr noundef nonnull align 8 dereferenceable(8) %6, ptr noundef nonnull @.str.54)
          to label %45 unwind label %48

45:                                               ; preds = %43
  invoke void @_ZNKSt7__cxx1119basic_ostringstreamIcSt11char_traitsIcESaIcEE3strEv(ptr dead_on_unwind nonnull writable sret(%"class.std::__cxx11::basic_string") align 8 %7, ptr noundef nonnull align 8 dereferenceable(112) %6)
          to label %46 unwind label %48

46:                                               ; preds = %45
  invoke void @_ZN4Json15throwLogicErrorERKNSt7__cxx1112basic_stringIcSt11char_traitsIcESaIcEEE(ptr noundef nonnull align 8 dereferenceable(32) %7) #43
          to label %47 unwind label %50

47:                                               ; preds = %46
  unreachable

48:                                               ; preds = %45, %43
  %49 = landingpad { ptr, i32 }
          cleanup
  br label %68

50:                                               ; preds = %46
  %51 = landingpad { ptr, i32 }
          cleanup
  call void @_ZNSt7__cxx1112basic_stringIcSt11char_traitsIcESaIcEED1Ev(ptr noundef nonnull align 8 dereferenceable(32) %7) #39
  br label %68

52:                                               ; preds = %38
  %53 = fptoui double %39 to i32
  br label %67

54:                                               ; preds = %1
  %55 = load i8, ptr %0, align 8
  %56 = and i8 %55, 1
  %57 = zext nneg i8 %56 to i32
  br label %67

58:                                               ; preds = %1
  call void @_ZNSt7__cxx1119basic_ostringstreamIcSt11char_traitsIcESaIcEEC1Ev(ptr noundef nonnull align 8 dereferenceable(112) %8)
  %59 = invoke noundef nonnull align 8 dereferenceable(8) ptr @_ZStlsISt11char_traitsIcEERSt13basic_ostreamIcT_ES5_PKc(ptr noundef nonnull align 8 dereferenceable(8) %8, ptr noundef nonnull @.str.55)
          to label %60 unwind label %63

60:                                               ; preds = %58
  invoke void @_ZNKSt7__cxx1119basic_ostringstreamIcSt11char_traitsIcESaIcEE3strEv(ptr dead_on_unwind nonnull writable sret(%"class.std::__cxx11::basic_string") align 8 %9, ptr noundef nonnull align 8 dereferenceable(112) %8)
          to label %61 unwind label %63

61:                                               ; preds = %60
  invoke void @_ZN4Json15throwLogicErrorERKNSt7__cxx1112basic_stringIcSt11char_traitsIcESaIcEEE(ptr noundef nonnull align 8 dereferenceable(32) %9) #43
          to label %62 unwind label %65

62:                                               ; preds = %61
  unreachable

63:                                               ; preds = %60, %58
  %64 = landingpad { ptr, i32 }
          cleanup
  br label %68

65:                                               ; preds = %61
  %66 = landingpad { ptr, i32 }
          cleanup
  call void @_ZNSt7__cxx1112basic_stringIcSt11char_traitsIcESaIcEED1Ev(ptr noundef nonnull align 8 dereferenceable(32) %9) #39
  br label %68

67:                                               ; preds = %1, %54, %52, %36, %23
  %.08 = phi i32 [ %57, %54 ], [ %53, %52 ], [ %37, %36 ], [ %24, %23 ], [ 0, %1 ]
  ret i32 %.08

68:                                               ; preds = %63, %65, %48, %50, %32, %34, %19, %21
  %.sink = phi ptr [ %2, %21 ], [ %2, %19 ], [ %4, %34 ], [ %4, %32 ], [ %6, %50 ], [ %6, %48 ], [ %8, %65 ], [ %8, %63 ]
  %.pn14.pn = phi { ptr, i32 } [ %22, %21 ], [ %20, %19 ], [ %35, %34 ], [ %33, %32 ], [ %51, %50 ], [ %49, %48 ], [ %66, %65 ], [ %64, %63 ]
  call void @_ZNSt7__cxx1119basic_ostringstreamIcSt11char_traitsIcESaIcEED1Ev(ptr noundef nonnull align 8 dereferenceable(112) %.sink) #39
  resume { ptr, i32 } %.pn14.pn
}